; Function Attrs: mustprogress uwtable
define noundef double @_ZNK8QuantLib15CPICouponPricer11swapletRateEv(ptr noundef nonnull align 8 dereferenceable(72) %this) unnamed_addr #8 align 2 {
entry:
  %coupon_ = getelementptr inbounds nuw i8, ptr %this, i64 48
  %0 = load ptr, ptr %coupon_, align 8, !tbaa !91
  %accrualEndDate_.i = getelementptr inbounds nuw i8, ptr %0, i64 48
  %agg.tmp.sroa.0.0.copyload = load i64, ptr %accrualEndDate_.i, align 8, !tbaa !30
  %vtable = load ptr, ptr %this, align 8, !tbaa !35
  %vfn = getelementptr inbounds i8, ptr %vtable, i64 104
  %1 = load ptr, ptr %vfn, align 8
  %call2 = tail call noundef double %1(ptr noundef nonnull align 8 dereferenceable(72) %this, i64 %agg.tmp.sroa.0.0.copyload)
  ret double %call2
}